target datalayout = "e-m:e-p270:32:32-p271:32:32-p272:64:64-i64:64-i128:128-f80:128-n8:16:32:64-S128"
target triple = "x86_64-pc-linux-gnu"

%struct.blake2s_param_st = type { i8, i8, i8, i8, [4 x i8], [6 x i8], i8, i8, [8 x i8], [8 x i8] }
%struct.blake2s_ctx_st = type { [8 x i32], [2 x i32], [2 x i32], [64 x i8], i64, i64 }

@blake2s_IV = internal constant [8 x i32] [i32 1779033703, i32 -1150833019, i32 1013904242, i32 -1521486534, i32 1359893119, i32 -1694144372, i32 528734635, i32 1541459225], align 16

; Function Attrs: inlinehint nounwind uwtable
define internal i32 @load32(ptr noundef %0) #1 {
  %2 = alloca ptr, align 8
  %3 = alloca i32, align 4
  %4 = alloca i32, align 4
  store ptr %0, ptr %2, align 8, !tbaa !15
  call void @llvm.lifetime.start.p0(i64 4, ptr %3) #6
  store i32 1, ptr %3, align 4, !tbaa !17
  call void @llvm.lifetime.start.p0(i64 4, ptr %4) #6
  %5 = load ptr, ptr %2, align 8, !tbaa !15
  call void @llvm.memcpy.p0.p0.i64(ptr align 4 %4, ptr align 1 %5, i64 4, i1 false)
  %6 = load i32, ptr %4, align 4, !tbaa !17
  call void @llvm.lifetime.end.p0(i64 4, ptr %4) #6
  call void @llvm.lifetime.end.p0(i64 4, ptr %3) #6
  ret i32 %6
}

; Function Attrs: inlinehint nounwind uwtable
define internal void @blake2s_init0(ptr noundef %0) #1 {
  %2 = alloca ptr, align 8
  %3 = alloca i32, align 4
  store ptr %0, ptr %2, align 8, !tbaa !22
  call void @llvm.lifetime.start.p0(i64 4, ptr %3) #6
  %4 = load ptr, ptr %2, align 8, !tbaa !22
  call void @llvm.memset.p0.i64(ptr align 8 %4, i8 0, i64 128, i1 false)
  store i32 0, ptr %3, align 4, !tbaa !17
  br label %5

5:                                                ; preds = %18, %1
  %6 = load i32, ptr %3, align 4, !tbaa !17
  %7 = icmp slt i32 %6, 8
  br i1 %7, label %8, label %21

8:                                                ; preds = %5
  %9 = load i32, ptr %3, align 4, !tbaa !17
  %10 = sext i32 %9 to i64
  %11 = getelementptr inbounds [8 x i32], ptr @blake2s_IV, i64 0, i64 %10
  %12 = load i32, ptr %11, align 4, !tbaa !17
  %13 = load ptr, ptr %2, align 8, !tbaa !22
  %14 = getelementptr inbounds nuw %struct.blake2s_ctx_st, ptr %13, i32 0, i32 0
  %15 = load i32, ptr %3, align 4, !tbaa !17
  %16 = sext i32 %15 to i64
  %17 = getelementptr inbounds [8 x i32], ptr %14, i64 0, i64 %16
  store i32 %12, ptr %17, align 4, !tbaa !17
  br label %18

18:                                               ; preds = %8
  %19 = load i32, ptr %3, align 4, !tbaa !17
  %20 = add nsw i32 %19, 1
  store i32 %20, ptr %3, align 4, !tbaa !17
  br label %5, !llvm.loop !35

21:                                               ; preds = %5
  call void @llvm.lifetime.end.p0(i64 4, ptr %3) #6
  ret void
}

; Function Attrs: nounwind uwtable
define internal void @blake2s_init_param(ptr noundef %0, ptr noundef %1) #0 {
  %3 = alloca ptr, align 8
  %4 = alloca ptr, align 8
  %5 = alloca i64, align 8
  %6 = alloca ptr, align 8
  store ptr %0, ptr %3, align 8, !tbaa !22
  store ptr %1, ptr %4, align 8, !tbaa !3
  call void @llvm.lifetime.start.p0(i64 8, ptr %5) #6
  call void @llvm.lifetime.start.p0(i64 8, ptr %6) #6
  %7 = load ptr, ptr %4, align 8, !tbaa !3
  store ptr %7, ptr %6, align 8, !tbaa !15
  %8 = load ptr, ptr %3, align 8, !tbaa !22
  call void @blake2s_init0(ptr noundef %8)
  %9 = load ptr, ptr %4, align 8, !tbaa !3
  %10 = getelementptr inbounds nuw %struct.blake2s_param_st, ptr %9, i32 0, i32 0
  %11 = load i8, ptr %10, align 1, !tbaa !8
  %12 = zext i8 %11 to i64
  %13 = load ptr, ptr %3, align 8, !tbaa !22
  %14 = getelementptr inbounds nuw %struct.blake2s_ctx_st, ptr %13, i32 0, i32 5
  store i64 %12, ptr %14, align 8, !tbaa !24
  store i64 0, ptr %5, align 8, !tbaa !19
  br label %15

15:                                               ; preds = %30, %2
  %16 = load i64, ptr %5, align 8, !tbaa !19
  %17 = icmp ult i64 %16, 8
  br i1 %17, label %18, label %33

18:                                               ; preds = %15
  %19 = load ptr, ptr %6, align 8, !tbaa !15
  %20 = load i64, ptr %5, align 8, !tbaa !19
  %21 = mul i64 %20, 4
  %22 = getelementptr inbounds nuw i8, ptr %19, i64 %21
  %23 = call i32 @load32(ptr noundef %22)
  %24 = load ptr, ptr %3, align 8, !tbaa !22
  %25 = getelementptr inbounds nuw %struct.blake2s_ctx_st, ptr %24, i32 0, i32 0
  %26 = load i64, ptr %5, align 8, !tbaa !19
  %27 = getelementptr inbounds nuw [8 x i32], ptr %25, i64 0, i64 %26
  %28 = load i32, ptr %27, align 4, !tbaa !17
  %29 = xor i32 %28, %23
  store i32 %29, ptr %27, align 4, !tbaa !17
  br label %30

30:                                               ; preds = %18
  %31 = load i64, ptr %5, align 8, !tbaa !19
  %32 = add i64 %31, 1
  store i64 %32, ptr %5, align 8, !tbaa !19
  br label %15, !llvm.loop !26

33:                                               ; preds = %15
  call void @llvm.lifetime.end.p0(i64 8, ptr %6) #6
  call void @llvm.lifetime.end.p0(i64 8, ptr %5) #6
  ret void
}

; Function Attrs: nounwind uwtable
define i32 @ossl_blake2s_init(ptr noundef %0, ptr noundef %1) #0 {
  %3 = alloca ptr, align 8
  %4 = alloca ptr, align 8
  store ptr %0, ptr %3, align 8, !tbaa !22
  store ptr %1, ptr %4, align 8, !tbaa !3
  %5 = load ptr, ptr %3, align 8, !tbaa !22
  %6 = load ptr, ptr %4, align 8, !tbaa !3
  call void @blake2s_init_param(ptr noundef %5, ptr noundef %6)
  ret i32 1
}