; Function Attrs: nofree norecurse nosync nounwind memory(argmem: readwrite) uwtable
define noundef i32 @ossl_blake2s_init(ptr noundef captures(none) initializes((0, 128)) %0, ptr noundef readonly captures(none) %1) local_unnamed_addr #4 {
  %3 = getelementptr i8, ptr %0, i64 32
  tail call void @llvm.memset.p0.i64(ptr noundef nonnull align 8 dereferenceable(96) %3, i8 0, i64 96, i1 false)
  tail call void @llvm.memcpy.p0.p0.i64(ptr noundef nonnull align 4 dereferenceable(32) %0, ptr noundef nonnull align 16 dereferenceable(32) @blake2s_IV, i64 32, i1 false), !tbaa !10
  %4 = load i8, ptr %1, align 1, !tbaa !3
  %5 = zext i8 %4 to i64
  %6 = getelementptr inbounds nuw i8, ptr %0, i64 120
  store i64 %5, ptr %6, align 8, !tbaa !12
  br label %7

7:                                                ; preds = %7, %2
  %.09.i = phi i64 [ 0, %2 ], [ %13, %7 ]
  %8 = shl nuw nsw i64 %.09.i, 2
  %9 = getelementptr inbounds nuw i8, ptr %1, i64 %8
  %.val.i = load i32, ptr %9, align 1
  %10 = getelementptr inbounds nuw [8 x i32], ptr %0, i64 0, i64 %.09.i
  %11 = load i32, ptr %10, align 4, !tbaa !10
  %12 = xor i32 %11, %.val.i
  store i32 %12, ptr %10, align 4, !tbaa !10
  %13 = add nuw nsw i64 %.09.i, 1
  %exitcond.not.i = icmp eq i64 %13, 8
  br i1 %exitcond.not.i, label %blake2s_init_param.exit, label %7, !llvm.loop !15

blake2s_init_param.exit:                          ; preds = %7
  ret i32 1
}